target datalayout = "e-m:e-p270:32:32-p271:32:32-p272:64:64-i64:64-i128:128-f80:128-n8:16:32:64-S128"
target triple = "x86_64-pc-linux-gnu"

%struct.Vec_Int_t_ = type { i32, i32, ptr }
%struct.Nf_Man_t_ = type { ptr, ptr, ptr, ptr, ptr, ptr, i32, ptr, %struct.Vec_Ptr_t_, %struct.Vec_Int_t_, %struct.Vec_Int_t_, %struct.Vec_Flt_t_, %struct.Vec_Int_t_, %struct.Vec_Flt_t_, %struct.Vec_Int_t_, %struct.Vec_Int_t_, i32, i32, i32, i32, i32, i64, float, i64, [6 x double], i32 }
%struct.Vec_Ptr_t_ = type { i32, i32, ptr }
%struct.Vec_Flt_t_ = type { i32, i32, ptr }
%struct.Gia_Man_t_ = type { ptr, ptr, i32, i32, i32, i32, ptr, ptr, i32, i32, i32, ptr, ptr, %struct.Vec_Int_t_, %struct.Vec_Int_t_, i32, i32, i32, %struct.Vec_Int_t_, ptr, ptr, ptr, i32, i32, i32, i32, ptr, ptr, ptr, ptr, ptr, i32, i32, ptr, i32, ptr, ptr, ptr, ptr, ptr, ptr, ptr, ptr, ptr, ptr, ptr, ptr, ptr, ptr, ptr, ptr, ptr, ptr, %struct.Vec_Int_t_, %struct.Vec_Int_t_, ptr, ptr, ptr, ptr, ptr, ptr, ptr, ptr, ptr, ptr, ptr, ptr, ptr, ptr, ptr, ptr, ptr, ptr, ptr, ptr, ptr, i32, float, float, ptr, ptr, i32, ptr, ptr, ptr, ptr, ptr, ptr, ptr, ptr, ptr, ptr, ptr, ptr, ptr, ptr, ptr, i64, i64, ptr, ptr, i32, i32, i32, i32, i32, i32, i32, i32, i32, i32, i32, i32, ptr, ptr, ptr, ptr, ptr, ptr, ptr, ptr, i32, i32, i32, ptr, i32, i32, ptr, ptr, ptr, ptr, ptr, ptr, i32, i32, ptr, %struct.Vec_Int_t_, %struct.Vec_Int_t_, %struct.Vec_Int_t_, ptr, ptr, ptr, i32, i32, i32, i32, ptr, ptr, ptr, ptr, ptr }
%struct.Gia_Obj_t_ = type <{ i64, i32 }>

; Function Attrs: inlinehint nounwind uwtable
define internal void @Vec_IntWriteEntry(ptr noundef %0, i32 noundef %1, i32 noundef %2) #2 {
  %4 = alloca ptr, align 8
  %5 = alloca i32, align 4
  %6 = alloca i32, align 4
  store ptr %0, ptr %4, align 8, !tbaa !26
  store i32 %1, ptr %5, align 4, !tbaa !17
  store i32 %2, ptr %6, align 4, !tbaa !17
  %7 = load i32, ptr %6, align 4, !tbaa !17
  %8 = load ptr, ptr %4, align 8, !tbaa !26
  %9 = getelementptr inbounds nuw %struct.Vec_Int_t_, ptr %8, i32 0, i32 2
  %10 = load ptr, ptr %9, align 8, !tbaa !46
  %11 = load i32, ptr %5, align 4, !tbaa !17
  %12 = sext i32 %11 to i64
  %13 = getelementptr inbounds i32, ptr %10, i64 %12
  store i32 %7, ptr %13, align 4, !tbaa !17
  ret void
}

; Function Attrs: inlinehint nounwind uwtable
define internal i32 @Vec_IntEntry(ptr noundef %0, i32 noundef %1) #2 {
  %3 = alloca ptr, align 8
  %4 = alloca i32, align 4
  store ptr %0, ptr %3, align 8, !tbaa !26
  store i32 %1, ptr %4, align 4, !tbaa !17
  %5 = load ptr, ptr %3, align 8, !tbaa !26
  %6 = getelementptr inbounds nuw %struct.Vec_Int_t_, ptr %5, i32 0, i32 2
  %7 = load ptr, ptr %6, align 8, !tbaa !46
  %8 = load i32, ptr %4, align 4, !tbaa !17
  %9 = sext i32 %8 to i64
  %10 = getelementptr inbounds i32, ptr %7, i64 %9
  %11 = load i32, ptr %10, align 4, !tbaa !17
  ret i32 %11
}

; Function Attrs: inlinehint nounwind uwtable
define internal void @Vec_FltWriteEntry(ptr noundef %0, i32 noundef %1, float noundef %2) #2 {
  %4 = alloca ptr, align 8
  %5 = alloca i32, align 4
  %6 = alloca float, align 4
  store ptr %0, ptr %4, align 8, !tbaa !123
  store i32 %1, ptr %5, align 4, !tbaa !17
  store float %2, ptr %6, align 4, !tbaa !48
  %7 = load float, ptr %6, align 4, !tbaa !48
  %8 = load ptr, ptr %4, align 8, !tbaa !123
  %9 = getelementptr inbounds nuw %struct.Vec_Flt_t_, ptr %8, i32 0, i32 2
  %10 = load ptr, ptr %9, align 8, !tbaa !124
  %11 = load i32, ptr %5, align 4, !tbaa !17
  %12 = sext i32 %11 to i64
  %13 = getelementptr inbounds float, ptr %10, i64 %12
  store float %7, ptr %13, align 4, !tbaa !48
  ret void
}

; Function Attrs: inlinehint nounwind uwtable
define internal float @Vec_FltEntry(ptr noundef %0, i32 noundef %1) #2 {
  %3 = alloca ptr, align 8
  %4 = alloca i32, align 4
  store ptr %0, ptr %3, align 8, !tbaa !123
  store i32 %1, ptr %4, align 4, !tbaa !17
  %5 = load ptr, ptr %3, align 8, !tbaa !123
  %6 = getelementptr inbounds nuw %struct.Vec_Flt_t_, ptr %5, i32 0, i32 2
  %7 = load ptr, ptr %6, align 8, !tbaa !124
  %8 = load i32, ptr %4, align 4, !tbaa !17
  %9 = sext i32 %8 to i64
  %10 = getelementptr inbounds float, ptr %7, i64 %9
  %11 = load float, ptr %10, align 4, !tbaa !48
  ret float %11
}

; Function Attrs: inlinehint nounwind uwtable
define internal i32 @Gia_ObjIsCo(ptr noundef %0) #2 {
  %2 = alloca ptr, align 8
  store ptr %0, ptr %2, align 8, !tbaa !137
  %3 = load ptr, ptr %2, align 8, !tbaa !137
  %4 = load i64, ptr %3, align 4
  %5 = lshr i64 %4, 31
  %6 = and i64 %5, 1
  %7 = trunc i64 %6 to i32
  %8 = icmp ne i32 %7, 0
  br i1 %8, label %9, label %15

9:                                                ; preds = %1
  %10 = load ptr, ptr %2, align 8, !tbaa !137
  %11 = load i64, ptr %10, align 4
  %12 = and i64 %11, 536870911
  %13 = trunc i64 %12 to i32
  %14 = icmp ne i32 %13, 536870911
  br label %15

15:                                               ; preds = %9, %1
  %16 = phi i1 [ false, %1 ], [ %14, %9 ]
  %17 = zext i1 %16 to i32
  ret i32 %17
}

; Function Attrs: inlinehint nounwind uwtable
define internal i32 @Gia_ObjCioId(ptr noundef %0) #2 {
  %2 = alloca ptr, align 8
  store ptr %0, ptr %2, align 8, !tbaa !137
  %3 = load ptr, ptr %2, align 8, !tbaa !137
  %4 = load i64, ptr %3, align 4
  %5 = lshr i64 %4, 32
  %6 = and i64 %5, 536870911
  %7 = trunc i64 %6 to i32
  ret i32 %7
}

; Function Attrs: inlinehint nounwind uwtable
define internal i32 @Gia_ObjIsCi(ptr noundef %0) #2 {
  %2 = alloca ptr, align 8
  store ptr %0, ptr %2, align 8, !tbaa !137
  %3 = load ptr, ptr %2, align 8, !tbaa !137
  %4 = load i64, ptr %3, align 4
  %5 = lshr i64 %4, 31
  %6 = and i64 %5, 1
  %7 = trunc i64 %6 to i32
  %8 = icmp ne i32 %7, 0
  br i1 %8, label %9, label %15

9:                                                ; preds = %1
  %10 = load ptr, ptr %2, align 8, !tbaa !137
  %11 = load i64, ptr %10, align 4
  %12 = and i64 %11, 536870911
  %13 = trunc i64 %12 to i32
  %14 = icmp eq i32 %13, 536870911
  br label %15

15:                                               ; preds = %9, %1
  %16 = phi i1 [ false, %1 ], [ %14, %9 ]
  %17 = zext i1 %16 to i32
  ret i32 %17
}

; Function Attrs: inlinehint nounwind uwtable
define internal i32 @Gia_ObjIsAnd(ptr noundef %0) #2 {
  %2 = alloca ptr, align 8
  store ptr %0, ptr %2, align 8, !tbaa !137
  %3 = load ptr, ptr %2, align 8, !tbaa !137
  %4 = load i64, ptr %3, align 4
  %5 = lshr i64 %4, 31
  %6 = and i64 %5, 1
  %7 = trunc i64 %6 to i32
  %8 = icmp ne i32 %7, 0
  br i1 %8, label %15, label %9

9:                                                ; preds = %1
  %10 = load ptr, ptr %2, align 8, !tbaa !137
  %11 = load i64, ptr %10, align 4
  %12 = and i64 %11, 536870911
  %13 = trunc i64 %12 to i32
  %14 = icmp ne i32 %13, 536870911
  br label %15

15:                                               ; preds = %9, %1
  %16 = phi i1 [ false, %1 ], [ %14, %9 ]
  %17 = zext i1 %16 to i32
  ret i32 %17
}

; Function Attrs: inlinehint nounwind uwtable
define internal void @Nf_ObjSetCutDelay(ptr noundef %0, i32 noundef %1, i32 noundef %2) #2 {
  %4 = alloca ptr, align 8
  %5 = alloca i32, align 4
  %6 = alloca i32, align 4
  store ptr %0, ptr %4, align 8, !tbaa !61
  store i32 %1, ptr %5, align 4, !tbaa !17
  store i32 %2, ptr %6, align 4, !tbaa !17
  %7 = load ptr, ptr %4, align 8, !tbaa !61
  %8 = getelementptr inbounds nuw %struct.Nf_Man_t_, ptr %7, i32 0, i32 14
  %9 = load i32, ptr %5, align 4, !tbaa !17
  %10 = load i32, ptr %6, align 4, !tbaa !17
  call void @Vec_IntWriteEntry(ptr noundef %8, i32 noundef %9, i32 noundef %10)
  ret void
}

; Function Attrs: inlinehint nounwind uwtable
define internal i32 @Nf_ObjCutDelay(ptr noundef %0, i32 noundef %1) #2 {
  %3 = alloca ptr, align 8
  %4 = alloca i32, align 4
  store ptr %0, ptr %3, align 8, !tbaa !61
  store i32 %1, ptr %4, align 4, !tbaa !17
  %5 = load ptr, ptr %3, align 8, !tbaa !61
  %6 = getelementptr inbounds nuw %struct.Nf_Man_t_, ptr %5, i32 0, i32 14
  %7 = load i32, ptr %4, align 4, !tbaa !17
  %8 = call i32 @Vec_IntEntry(ptr noundef %6, i32 noundef %7)
  ret i32 %8
}

; Function Attrs: inlinehint nounwind uwtable
define internal void @Nf_ObjSetCutFlow(ptr noundef %0, i32 noundef %1, float noundef %2) #2 {
  %4 = alloca ptr, align 8
  %5 = alloca i32, align 4
  %6 = alloca float, align 4
  store ptr %0, ptr %4, align 8, !tbaa !61
  store i32 %1, ptr %5, align 4, !tbaa !17
  store float %2, ptr %6, align 4, !tbaa !48
  %7 = load ptr, ptr %4, align 8, !tbaa !61
  %8 = getelementptr inbounds nuw %struct.Nf_Man_t_, ptr %7, i32 0, i32 13
  %9 = load i32, ptr %5, align 4, !tbaa !17
  %10 = load float, ptr %6, align 4, !tbaa !48
  call void @Vec_FltWriteEntry(ptr noundef %8, i32 noundef %9, float noundef %10)
  ret void
}

; Function Attrs: inlinehint nounwind uwtable
define internal float @Nf_ObjCutFlow(ptr noundef %0, i32 noundef %1) #2 {
  %3 = alloca ptr, align 8
  %4 = alloca i32, align 4
  store ptr %0, ptr %3, align 8, !tbaa !61
  store i32 %1, ptr %4, align 4, !tbaa !17
  %5 = load ptr, ptr %3, align 8, !tbaa !61
  %6 = getelementptr inbounds nuw %struct.Nf_Man_t_, ptr %5, i32 0, i32 13
  %7 = load i32, ptr %4, align 4, !tbaa !17
  %8 = call float @Vec_FltEntry(ptr noundef %6, i32 noundef %7)
  ret float %8
}

; Function Attrs: inlinehint nounwind uwtable
define internal i32 @Gia_ObjFaninId0(ptr noundef %0, i32 noundef %1) #2 {
  %3 = alloca ptr, align 8
  %4 = alloca i32, align 4
  store ptr %0, ptr %3, align 8, !tbaa !137
  store i32 %1, ptr %4, align 4, !tbaa !17
  %5 = load i32, ptr %4, align 4, !tbaa !17
  %6 = load ptr, ptr %3, align 8, !tbaa !137
  %7 = load i64, ptr %6, align 4
  %8 = and i64 %7, 536870911
  %9 = trunc i64 %8 to i32
  %10 = sub nsw i32 %5, %9
  ret i32 %10
}

; Function Attrs: inlinehint nounwind uwtable
define internal i32 @Gia_ObjIsBuf(ptr noundef %0) #2 {
  %2 = alloca ptr, align 8
  store ptr %0, ptr %2, align 8, !tbaa !137
  %3 = load ptr, ptr %2, align 8, !tbaa !137
  %4 = load i64, ptr %3, align 4
  %5 = and i64 %4, 536870911
  %6 = trunc i64 %5 to i32
  %7 = load ptr, ptr %2, align 8, !tbaa !137
  %8 = load i64, ptr %7, align 4
  %9 = lshr i64 %8, 32
  %10 = and i64 %9, 536870911
  %11 = trunc i64 %10 to i32
  %12 = icmp eq i32 %6, %11
  br i1 %12, label %13, label %27

13:                                               ; preds = %1
  %14 = load ptr, ptr %2, align 8, !tbaa !137
  %15 = load i64, ptr %14, align 4
  %16 = and i64 %15, 536870911
  %17 = trunc i64 %16 to i32
  %18 = icmp ne i32 %17, 536870911
  br i1 %18, label %19, label %27

19:                                               ; preds = %13
  %20 = load ptr, ptr %2, align 8, !tbaa !137
  %21 = load i64, ptr %20, align 4
  %22 = lshr i64 %21, 31
  %23 = and i64 %22, 1
  %24 = trunc i64 %23 to i32
  %25 = icmp ne i32 %24, 0
  %26 = xor i1 %25, true
  br label %27

27:                                               ; preds = %19, %13, %1
  %28 = phi i1 [ false, %13 ], [ false, %1 ], [ %26, %19 ]
  %29 = zext i1 %28 to i32
  ret i32 %29
}

; Function Attrs: inlinehint nounwind uwtable
define internal ptr @Gia_ManObj(ptr noundef %0, i32 noundef %1) #2 {
  %3 = alloca ptr, align 8
  %4 = alloca i32, align 4
  store ptr %0, ptr %3, align 8, !tbaa !84
  store i32 %1, ptr %4, align 4, !tbaa !17
  %5 = load ptr, ptr %3, align 8, !tbaa !84
  %6 = getelementptr inbounds nuw %struct.Gia_Man_t_, ptr %5, i32 0, i32 6
  %7 = load ptr, ptr %6, align 8, !tbaa !157
  %8 = load i32, ptr %4, align 4, !tbaa !17
  %9 = sext i32 %8 to i64
  %10 = getelementptr inbounds %struct.Gia_Obj_t_, ptr %7, i64 %9
  ret ptr %10
}

; Function Attrs: nounwind uwtable
define void @Nf_ManComputeCuts(ptr noundef %0) #0 {
  %2 = alloca ptr, align 8
  %3 = alloca ptr, align 8
  %4 = alloca i32, align 4
  %5 = alloca i32, align 4
  %6 = alloca i32, align 4
  %7 = alloca float, align 4
  %8 = alloca float, align 4
  %9 = alloca i32, align 4
  %10 = alloca i32, align 4
  store ptr %0, ptr %2, align 8, !tbaa !61
  call void @llvm.lifetime.start.p0(i64 8, ptr %3) #13
  call void @llvm.lifetime.start.p0(i64 4, ptr %4) #13
  call void @llvm.lifetime.start.p0(i64 4, ptr %5) #13
  call void @llvm.lifetime.start.p0(i64 4, ptr %6) #13
  call void @llvm.lifetime.start.p0(i64 4, ptr %7) #13
  store float 0.000000e+00, ptr %7, align 4, !tbaa !48
  call void @llvm.lifetime.start.p0(i64 4, ptr %8) #13
  store float 0.000000e+00, ptr %8, align 4, !tbaa !48
  call void @llvm.lifetime.start.p0(i64 4, ptr %9) #13
  store i32 0, ptr %9, align 4, !tbaa !17
  call void @llvm.lifetime.start.p0(i64 4, ptr %10) #13
  store i32 0, ptr %10, align 4, !tbaa !17
  %11 = load ptr, ptr %2, align 8, !tbaa !61
  %12 = getelementptr inbounds nuw %struct.Nf_Man_t_, ptr %11, i32 0, i32 1
  %13 = load ptr, ptr %12, align 8, !tbaa !102
  %14 = icmp ne ptr %13, null
  br i1 %14, label %15, label %19

15:                                               ; preds = %1
  %16 = load ptr, ptr %2, align 8, !tbaa !61
  %17 = getelementptr inbounds nuw %struct.Nf_Man_t_, ptr %16, i32 0, i32 1
  %18 = load ptr, ptr %17, align 8, !tbaa !102
  call void @Tim_ManIncrementTravId(ptr noundef %18)
  br label %19

19:                                               ; preds = %15, %1
  %20 = load ptr, ptr %2, align 8, !tbaa !61
  %21 = getelementptr inbounds nuw %struct.Nf_Man_t_, ptr %20, i32 0, i32 0
  %22 = load ptr, ptr %21, align 8, !tbaa !100
  %23 = getelementptr inbounds nuw %struct.Gia_Man_t_, ptr %22, i32 0, i32 144
  %24 = load i32, ptr %23, align 8, !tbaa !172
  store i32 %24, ptr %4, align 4, !tbaa !17
  br label %25

25:                                               ; preds = %122, %19
  %26 = load i32, ptr %4, align 4, !tbaa !17
  %27 = load ptr, ptr %2, align 8, !tbaa !61
  %28 = getelementptr inbounds nuw %struct.Nf_Man_t_, ptr %27, i32 0, i32 0
  %29 = load ptr, ptr %28, align 8, !tbaa !100
  %30 = getelementptr inbounds nuw %struct.Gia_Man_t_, ptr %29, i32 0, i32 145
  %31 = load i32, ptr %30, align 4, !tbaa !173
  %32 = icmp slt i32 %26, %31
  br i1 %32, label %33, label %40

33:                                               ; preds = %25
  %34 = load ptr, ptr %2, align 8, !tbaa !61
  %35 = getelementptr inbounds nuw %struct.Nf_Man_t_, ptr %34, i32 0, i32 0
  %36 = load ptr, ptr %35, align 8, !tbaa !100
  %37 = load i32, ptr %4, align 4, !tbaa !17
  %38 = call ptr @Gia_ManObj(ptr noundef %36, i32 noundef %37)
  store ptr %38, ptr %3, align 8, !tbaa !137
  %39 = icmp ne ptr %38, null
  br label %40

40:                                               ; preds = %33, %25
  %41 = phi i1 [ false, %25 ], [ %39, %33 ]
  br i1 %41, label %42, label %125

42:                                               ; preds = %40
  %43 = load ptr, ptr %3, align 8, !tbaa !137
  %44 = call i32 @Gia_ObjIsBuf(ptr noundef %43)
  %45 = icmp ne i32 %44, 0
  br i1 %45, label %46, label %60

46:                                               ; preds = %42
  %47 = load ptr, ptr %3, align 8, !tbaa !137
  %48 = load i32, ptr %4, align 4, !tbaa !17
  %49 = call i32 @Gia_ObjFaninId0(ptr noundef %47, i32 noundef %48)
  store i32 %49, ptr %5, align 4, !tbaa !17
  %50 = load ptr, ptr %2, align 8, !tbaa !61
  %51 = load i32, ptr %4, align 4, !tbaa !17
  %52 = load ptr, ptr %2, align 8, !tbaa !61
  %53 = load i32, ptr %5, align 4, !tbaa !17
  %54 = call float @Nf_ObjCutFlow(ptr noundef %52, i32 noundef %53)
  call void @Nf_ObjSetCutFlow(ptr noundef %50, i32 noundef %51, float noundef %54)
  %55 = load ptr, ptr %2, align 8, !tbaa !61
  %56 = load i32, ptr %4, align 4, !tbaa !17
  %57 = load ptr, ptr %2, align 8, !tbaa !61
  %58 = load i32, ptr %5, align 4, !tbaa !17
  %59 = call i32 @Nf_ObjCutDelay(ptr noundef %57, i32 noundef %58)
  call void @Nf_ObjSetCutDelay(ptr noundef %55, i32 noundef %56, i32 noundef %59)
  br label %121

60:                                               ; preds = %42
  %61 = load ptr, ptr %3, align 8, !tbaa !137
  %62 = call i32 @Gia_ObjIsAnd(ptr noundef %61)
  %63 = icmp ne i32 %62, 0
  br i1 %63, label %64, label %67

64:                                               ; preds = %60
  %65 = load ptr, ptr %2, align 8, !tbaa !61
  %66 = load i32, ptr %4, align 4, !tbaa !17
  call void @Nf_ObjMergeOrder(ptr noundef %65, i32 noundef %66)
  br label %120

67:                                               ; preds = %60
  %68 = load ptr, ptr %3, align 8, !tbaa !137
  %69 = call i32 @Gia_ObjIsCi(ptr noundef %68)
  %70 = icmp ne i32 %69, 0
  br i1 %70, label %71, label %93

71:                                               ; preds = %67
  %72 = load i32, ptr %9, align 4, !tbaa !17
  %73 = icmp ne i32 %72, 0
  br i1 %73, label %74, label %79

74:                                               ; preds = %71
  %75 = load float, ptr %7, align 4, !tbaa !48
  %76 = load i32, ptr %10, align 4, !tbaa !17
  %77 = sitofp i32 %76 to float
  %78 = fdiv float %75, %77
  store float %78, ptr %8, align 4, !tbaa !48
  store float 0.000000e+00, ptr %7, align 4, !tbaa !48
  store i32 0, ptr %10, align 4, !tbaa !17
  store i32 0, ptr %9, align 4, !tbaa !17
  br label %79

79:                                               ; preds = %74, %71
  %80 = load ptr, ptr %2, align 8, !tbaa !61
  %81 = getelementptr inbounds nuw %struct.Nf_Man_t_, ptr %80, i32 0, i32 1
  %82 = load ptr, ptr %81, align 8, !tbaa !102
  %83 = load ptr, ptr %3, align 8, !tbaa !137
  %84 = call i32 @Gia_ObjCioId(ptr noundef %83)
  %85 = call float @Tim_ManGetCiArrival(ptr noundef %82, i32 noundef %84)
  %86 = fptosi float %85 to i32
  store i32 %86, ptr %6, align 4, !tbaa !17
  %87 = load ptr, ptr %2, align 8, !tbaa !61
  %88 = load i32, ptr %4, align 4, !tbaa !17
  %89 = load float, ptr %8, align 4, !tbaa !48
  call void @Nf_ObjSetCutFlow(ptr noundef %87, i32 noundef %88, float noundef %89)
  %90 = load ptr, ptr %2, align 8, !tbaa !61
  %91 = load i32, ptr %4, align 4, !tbaa !17
  %92 = load i32, ptr %6, align 4, !tbaa !17
  call void @Nf_ObjSetCutDelay(ptr noundef %90, i32 noundef %91, i32 noundef %92)
  br label %119

93:                                               ; preds = %67
  %94 = load ptr, ptr %3, align 8, !tbaa !137
  %95 = call i32 @Gia_ObjIsCo(ptr noundef %94)
  %96 = icmp ne i32 %95, 0
  br i1 %96, label %97, label %118

97:                                               ; preds = %93
  %98 = load ptr, ptr %3, align 8, !tbaa !137
  %99 = load i32, ptr %4, align 4, !tbaa !17
  %100 = call i32 @Gia_ObjFaninId0(ptr noundef %98, i32 noundef %99)
  store i32 %100, ptr %5, align 4, !tbaa !17
  %101 = load ptr, ptr %2, align 8, !tbaa !61
  %102 = load i32, ptr %5, align 4, !tbaa !17
  %103 = call float @Nf_ObjCutFlow(ptr noundef %101, i32 noundef %102)
  %104 = load float, ptr %7, align 4, !tbaa !48
  %105 = fadd float %104, %103
  store float %105, ptr %7, align 4, !tbaa !48
  %106 = load ptr, ptr %2, align 8, !tbaa !61
  %107 = load i32, ptr %5, align 4, !tbaa !17
  %108 = call i32 @Nf_ObjCutDelay(ptr noundef %106, i32 noundef %107)
  store i32 %108, ptr %6, align 4, !tbaa !17
  %109 = load ptr, ptr %2, align 8, !tbaa !61
  %110 = getelementptr inbounds nuw %struct.Nf_Man_t_, ptr %109, i32 0, i32 1
  %111 = load ptr, ptr %110, align 8, !tbaa !102
  %112 = load ptr, ptr %3, align 8, !tbaa !137
  %113 = call i32 @Gia_ObjCioId(ptr noundef %112)
  %114 = load i32, ptr %6, align 4, !tbaa !17
  %115 = sitofp i32 %114 to float
  call void @Tim_ManSetCoArrival(ptr noundef %111, i32 noundef %113, float noundef %115)
  %116 = load i32, ptr %10, align 4, !tbaa !17
  %117 = add nsw i32 %116, 1
  store i32 %117, ptr %10, align 4, !tbaa !17
  store i32 1, ptr %9, align 4, !tbaa !17
  br label %118

118:                                              ; preds = %97, %93
  br label %119

119:                                              ; preds = %118, %79
  br label %120

120:                                              ; preds = %119, %64
  br label %121

121:                                              ; preds = %120, %46
  br label %122

122:                                              ; preds = %121
  %123 = load i32, ptr %4, align 4, !tbaa !17
  %124 = add nsw i32 %123, 1
  store i32 %124, ptr %4, align 4, !tbaa !17
  br label %25, !llvm.loop !174

125:                                              ; preds = %40
  call void @llvm.lifetime.end.p0(i64 4, ptr %10) #13
  call void @llvm.lifetime.end.p0(i64 4, ptr %9) #13
  call void @llvm.lifetime.end.p0(i64 4, ptr %8) #13
  call void @llvm.lifetime.end.p0(i64 4, ptr %7) #13
  call void @llvm.lifetime.end.p0(i64 4, ptr %6) #13
  call void @llvm.lifetime.end.p0(i64 4, ptr %5) #13
  call void @llvm.lifetime.end.p0(i64 4, ptr %4) #13
  call void @llvm.lifetime.end.p0(i64 8, ptr %3) #13
  ret void
}