; Function Attrs: nounwind uwtable
define void @Nf_ManComputeCuts(ptr noundef %0) local_unnamed_addr #2 {
  %2 = getelementptr inbounds nuw i8, ptr %0, i64 8
  %3 = load ptr, ptr %2, align 8, !tbaa !102
  %.not = icmp eq ptr %3, null
  br i1 %.not, label %5, label %4

4:                                                ; preds = %1
  tail call void @Tim_ManIncrementTravId(ptr noundef nonnull %3) #26
  br label %5

5:                                                ; preds = %4, %1
  %6 = load ptr, ptr %0, align 8, !tbaa !100
  %7 = getelementptr inbounds nuw i8, ptr %6, i64 1072
  %8 = load i32, ptr %7, align 8, !tbaa !175
  %9 = getelementptr inbounds nuw i8, ptr %6, i64 1076
  %10 = load i32, ptr %9, align 4, !tbaa !176
  %11 = icmp slt i32 %8, %10
  br i1 %11, label %.lr.ph, label %.critedge

.lr.ph:                                           ; preds = %5
  %12 = getelementptr i8, ptr %0, i64 152
  %13 = getelementptr i8, ptr %0, i64 168
  %14 = sext i32 %8 to i64
  br label %15

15:                                               ; preds = %.lr.ph, %62
  %indvars.iv = phi i64 [ %14, %.lr.ph ], [ %indvars.iv.next, %62 ]
  %16 = phi ptr [ %6, %.lr.ph ], [ %63, %62 ]
  %.088 = phi i32 [ 0, %.lr.ph ], [ %.2, %62 ]
  %.04587 = phi i32 [ 0, %.lr.ph ], [ %.247, %62 ]
  %.04886 = phi float [ 0.000000e+00, %.lr.ph ], [ %.250, %62 ]
  %.05185 = phi float [ 0.000000e+00, %.lr.ph ], [ %.253, %62 ]
  %17 = getelementptr i8, ptr %16, i64 32
  %.val = load ptr, ptr %17, align 8, !tbaa !134
  %.not57 = icmp eq ptr %.val, null
  br i1 %.not57, label %.critedge, label %18

18:                                               ; preds = %15
  %19 = getelementptr inbounds %struct.Gia_Obj_t_, ptr %.val, i64 %indvars.iv
  %.val74 = load i64, ptr %19, align 4
  %20 = trunc i64 %.val74 to i32
  %21 = and i32 %20, 536870911
  %22 = lshr i64 %.val74, 32
  %23 = trunc nuw i64 %22 to i32
  %24 = and i32 %23, 536870911
  %25 = icmp eq i32 %21, %24
  %.not.i = icmp ne i32 %21, 536870911
  %or.cond.not.i = and i1 %.not.i, %25
  %26 = and i64 %.val74, 2147483648
  %.not4.i = icmp eq i64 %26, 0
  %narrow.i = and i1 %.not4.i, %or.cond.not.i
  %27 = and i64 %.val74, 536870911
  br i1 %narrow.i, label %28, label %36

28:                                               ; preds = %18
  %29 = sub nsw i64 %indvars.iv, %27
  %.val67 = load ptr, ptr %12, align 8, !tbaa !110
  %30 = getelementptr inbounds float, ptr %.val67, i64 %29
  %31 = load float, ptr %30, align 4, !tbaa !111
  %32 = getelementptr inbounds float, ptr %.val67, i64 %indvars.iv
  store float %31, ptr %32, align 4, !tbaa !111
  %.val65 = load ptr, ptr %13, align 8, !tbaa !25
  %33 = getelementptr inbounds i32, ptr %.val65, i64 %29
  %34 = load i32, ptr %33, align 4, !tbaa !13
  %35 = getelementptr inbounds i32, ptr %.val65, i64 %indvars.iv
  store i32 %34, ptr %35, align 4, !tbaa !13
  br label %62

36:                                               ; preds = %18
  %37 = icmp ne i64 %27, 536870911
  %narrow.i80 = and i1 %.not4.i, %37
  br i1 %narrow.i80, label %38, label %40

38:                                               ; preds = %36
  %39 = trunc nsw i64 %indvars.iv to i32
  tail call void @Nf_ObjMergeOrder(ptr noundef nonnull %0, i32 noundef %39)
  br label %62

40:                                               ; preds = %36
  %41 = and i64 %.val74, 2684354559
  %narrow.i81.not = icmp eq i64 %41, 2684354559
  br i1 %narrow.i81.not, label %42, label %50

42:                                               ; preds = %40
  %.not62 = icmp eq i32 %.04587, 0
  %43 = sitofp i32 %.088 to float
  %44 = fdiv float %.05185, %43
  %.152 = select i1 %.not62, float %.05185, float 0.000000e+00
  %.149 = select i1 %.not62, float %.04886, float %44
  %.1 = select i1 %.not62, i32 %.088, i32 0
  %45 = load ptr, ptr %2, align 8, !tbaa !102
  %46 = tail call float @Tim_ManGetCiArrival(ptr noundef %45, i32 noundef %24) #26
  %47 = fptosi float %46 to i32
  %.val70 = load ptr, ptr %12, align 8, !tbaa !110
  %48 = getelementptr inbounds float, ptr %.val70, i64 %indvars.iv
  store float %.149, ptr %48, align 4, !tbaa !111
  %.val72 = load ptr, ptr %13, align 8, !tbaa !25
  %49 = getelementptr inbounds i32, ptr %.val72, i64 %indvars.iv
  store i32 %47, ptr %49, align 4, !tbaa !13
  br label %62

50:                                               ; preds = %40
  %.not.i82 = icmp ne i64 %26, 0
  %narrow.i83 = and i1 %.not.i82, %37
  br i1 %narrow.i83, label %51, label %62

51:                                               ; preds = %50
  %52 = and i64 %.val74, 536870911
  %53 = sub nsw i64 %indvars.iv, %52
  %.val68 = load ptr, ptr %12, align 8, !tbaa !110
  %54 = getelementptr inbounds float, ptr %.val68, i64 %53
  %55 = load float, ptr %54, align 4, !tbaa !111
  %56 = fadd float %.05185, %55
  %.val66 = load ptr, ptr %13, align 8, !tbaa !25
  %57 = getelementptr inbounds i32, ptr %.val66, i64 %53
  %58 = load i32, ptr %57, align 4, !tbaa !13
  %59 = load ptr, ptr %2, align 8, !tbaa !102
  %60 = sitofp i32 %58 to float
  tail call void @Tim_ManSetCoArrival(ptr noundef %59, i32 noundef %24, float noundef %60) #26
  %61 = add nsw i32 %.088, 1
  br label %62

62:                                               ; preds = %28, %42, %51, %50, %38
  %.253 = phi float [ %.05185, %28 ], [ %.05185, %38 ], [ %.152, %42 ], [ %56, %51 ], [ %.05185, %50 ]
  %.250 = phi float [ %.04886, %28 ], [ %.04886, %38 ], [ %.149, %42 ], [ %.04886, %51 ], [ %.04886, %50 ]
  %.247 = phi i32 [ %.04587, %28 ], [ %.04587, %38 ], [ 0, %42 ], [ 1, %51 ], [ %.04587, %50 ]
  %.2 = phi i32 [ %.088, %28 ], [ %.088, %38 ], [ %.1, %42 ], [ %61, %51 ], [ %.088, %50 ]
  %indvars.iv.next = add nsw i64 %indvars.iv, 1
  %63 = load ptr, ptr %0, align 8, !tbaa !100
  %64 = getelementptr inbounds nuw i8, ptr %63, i64 1076
  %65 = load i32, ptr %64, align 4, !tbaa !176
  %66 = sext i32 %65 to i64
  %67 = icmp slt i64 %indvars.iv.next, %66
  br i1 %67, label %15, label %.critedge, !llvm.loop !177

.critedge:                                        ; preds = %15, %62, %5
  ret void
}